target datalayout = "e-m:e-p270:32:32-p271:32:32-p272:64:64-i64:64-i128:128-f80:128-n8:16:32:64-S128"
target triple = "x86_64-pc-linux-gnu"

%class.ErrorHandler = type <{ i32, i32, i8, i8, i8, i8, i8, i8, [2 x i8] }>
%class.ComprDataIO = type <{ i8, [7 x i8], i64, ptr, i8, [7 x i8], i64, ptr, i64, ptr, i64, i64, i8, i8, i8, i8, [4 x i8], ptr, ptr, ptr, ptr, ptr, ptr, ptr, i32, i32, i8, i8, i8, [5 x i8], i64, i64, i64, i64, i64, i64, i64, %class.DataHash, %class.DataHash, %class.DataHash, i8, i8, [6 x i8] }>
%class.DataHash = type { i32, i32, ptr }
%class.CryptData = type { [4 x %"struct.CryptData::KDF3CacheItem"], i32, [4 x i8], [4 x %"struct.CryptData::KDF5CacheItem"], i32, i32, %class.Rijndael, [256 x i32], [256 x i8], [4 x i32], [3 x i8], [4 x i16], [4 x i8] }
%"struct.CryptData::KDF3CacheItem" = type { %class.SecPassword, [8 x i8], [16 x i8], [16 x i8], i8, [7 x i8] }
%class.SecPassword = type <{ %"class.std::vector", i8, [7 x i8] }>
%"class.std::vector" = type { %"struct.std::_Vector_base" }
%"struct.std::_Vector_base" = type { %"struct.std::_Vector_base<wchar_t, std::allocator<wchar_t>>::_Vector_impl" }
%"struct.std::_Vector_base<wchar_t, std::allocator<wchar_t>>::_Vector_impl" = type { %"struct.std::_Vector_base<wchar_t, std::allocator<wchar_t>>::_Vector_impl_data" }
%"struct.std::_Vector_base<wchar_t, std::allocator<wchar_t>>::_Vector_impl_data" = type { ptr, ptr, ptr }
%"struct.CryptData::KDF5CacheItem" = type { %class.SecPassword, [16 x i8], [32 x i8], i32, [32 x i8], [32 x i8], [4 x i8] }
%class.Rijndael = type { i8, i32, [16 x i8], [15 x [4 x [4 x i8]]] }
%class.Archive = type <{ %class.File, %class.CryptData, %class.ComprDataIO, i8, [7 x i8], ptr, %class.RarTime, i32, i32, i8, [7 x i8], %class.QuickOpen, i8, [3 x i8], %struct.BaseBlock, %struct.MarkHeader, [4 x i8], %struct.MainHeader, %struct.CryptHeader, [4 x i8], %struct.FileHeader, %struct.EndArcHeader, %struct.SubBlockHeader, [4 x i8], %struct.FileHeader, %struct.CommentHeader, %struct.ProtectHeader, %struct.EAHeader, %struct.StreamHeader, [4 x i8], i64, i64, i32, i8, i8, i8, i8, i8, i8, i8, i8, i8, [3 x i8], i64, i8, i8, [16 x i8], i8, i8, i32, i64, i64, i64, i8, [3 x i8], [2048 x i32], [4 x i8] }>
%class.File = type { ptr, i64, i8, i32, i8, i8, i32, i8, i8, i8, i8, i8, i64, i8, [2048 x i32], i32, ptr }
%class.RarTime = type { i64 }
%class.QuickOpen = type <{ ptr, i8, [7 x i8], ptr, ptr, ptr, i64, %class.CryptData, i8, [7 x i8], i64, i64, i64, i64, i64, i64, %class.Array, i64, i64, i8, [7 x i8] }>
%class.Array = type { ptr, i64, i64, i64 }
%struct.BaseBlock = type { i32, i32, i32, i32, i8 }
%struct.MarkHeader = type { [8 x i8], i32 }
%struct.MainHeader = type { %struct.BaseBlock, i16, i32, i8, i8, i8, i64, i64, i64, i64, i64, %"class.std::__cxx11::basic_string", %class.RarTime }
%"class.std::__cxx11::basic_string" = type { %"struct.std::__cxx11::basic_string<wchar_t>::_Alloc_hider", i64, %union.anon }
%"struct.std::__cxx11::basic_string<wchar_t>::_Alloc_hider" = type { ptr }
%union.anon = type { i64, [8 x i8] }
%struct.CryptHeader = type { %struct.BaseBlock, i8, i32, [16 x i8], [8 x i8] }
%struct.EndArcHeader = type { %struct.BaseBlock, i32, i32, i8, i8, i8, i8 }
%struct.SubBlockHeader = type <{ %struct.BlockHeader, i16, i8, i8 }>
%struct.BlockHeader = type { %struct.BaseBlock, i32 }
%struct.FileHeader = type { %struct.BlockHeader, i8, i32, i8, %union.anon.0, [2048 x i32], %class.Array, %class.RarTime, %class.RarTime, %class.RarTime, i64, i64, i64, %struct.HashValue, i32, i8, i8, i8, i8, i32, i8, [16 x i8], [16 x i8], i8, [8 x i8], i8, [32 x i8], i32, i8, i8, i8, i8, i64, i8, i8, i8, i32, i32, [2048 x i32], i8, i8, i8, i8, [256 x i8], [256 x i8], i32, i32 }
%union.anon.0 = type { i32 }
%struct.HashValue = type { i32, %union.anon.1 }
%union.anon.1 = type { i32, [28 x i8] }
%struct.CommentHeader = type <{ %struct.BaseBlock, i16, i8, i8, i16, [2 x i8] }>
%struct.ProtectHeader = type { %struct.BlockHeader, i8, i16, i32, [8 x i8] }
%struct.EAHeader = type { %struct.SubBlockHeader.base, i32, i8, i8, i32 }
%struct.SubBlockHeader.base = type <{ %struct.BlockHeader, i16, i8 }>
%struct.StreamHeader = type <{ %struct.SubBlockHeader.base, i8, i32, i8, i8, [2 x i8], i32, i16, [260 x i8], [2 x i8] }>
%class.RAROptions = type { i32, i32, i8, i8, i8, i64, [2048 x i32], [2048 x i32], i32, i8, [2048 x i32], [2048 x i32], i32, i32, i32, i32, [2048 x i32], [2048 x i32], i8, i8, i8, [2048 x i32], i32, i32, i32, i32, i32, i32, i32, i32, i8, i8, i8, i8, i8, i32, i32, i8, i8, i8, i8, i8, i32, i32, i64, i32, i8, i8, i8, i32, i32, i8, i8, i8, i8, i32, i32, i8, i8, i8, i8, [128 x i32], [128 x i32], i8, i8, i8, i8, i8, %class.RarTime, %class.RarTime, %class.RarTime, i8, i8, i8, %class.RarTime, %class.RarTime, %class.RarTime, i8, i8, i8, i64, i64, i8, i8, i8, [16 x %struct.FilterMode], [2048 x i32], i32, i32, i32, i32, i32, i32, i8, [2048 x i32], i32, [2048 x i32], i32, i32, i64, ptr, ptr, ptr }
%struct.FilterMode = type { i32, i32, i32 }

@ErrHandler = external global %class.ErrorHandler, align 4

; Function Attrs: mustprogress nounwind uwtable
define void @_ZN11ComprDataIO12ShowUnpWriteEv(ptr noundef nonnull align 8 dereferenceable(266) %0) #4 align 2 {
  %2 = alloca ptr, align 8
  store ptr %0, ptr %2, align 8
  ret void
}

; Function Attrs: mustprogress nounwind uwtable
define linkonce_odr noundef ptr @_ZN7Archive14GetCommandDataEv(ptr noundef nonnull align 8 dereferenceable(57108) %0) #4 comdat align 2 {
  %2 = alloca ptr, align 8
  store ptr %0, ptr %2, align 8
  %3 = load ptr, ptr %2, align 8
  %4 = getelementptr inbounds %class.Archive, ptr %3, i32 0, i32 5
  %5 = load ptr, ptr %4, align 8
  ret ptr %5
}

; Function Attrs: mustprogress uwtable
define void @_ZN11ComprDataIO8UnpWriteEPhm(ptr noundef nonnull align 8 dereferenceable(266) %0, ptr noundef %1, i64 noundef %2) #0 align 2 {
  %4 = alloca ptr, align 8
  %5 = alloca ptr, align 8
  %6 = alloca i64, align 8
  %7 = alloca ptr, align 8
  %8 = alloca i32, align 4
  store ptr %0, ptr %4, align 8
  store ptr %1, ptr %5, align 8
  store i64 %2, ptr %6, align 8
  %9 = load ptr, ptr %4, align 8
  %10 = getelementptr inbounds %class.ComprDataIO, ptr %9, i32 0, i32 17
  %11 = load ptr, ptr %10, align 8
  %12 = call noundef ptr @_ZN7Archive14GetCommandDataEv(ptr noundef nonnull align 8 dereferenceable(57108) %11)
  store ptr %12, ptr %7, align 8
  %13 = load ptr, ptr %7, align 8
  %14 = getelementptr inbounds %class.RAROptions, ptr %13, i32 0, i32 97
  %15 = load i32, ptr %14, align 4
  %16 = icmp ne i32 %15, 0
  br i1 %16, label %17, label %53

17:                                               ; preds = %3
  %18 = load ptr, ptr %7, align 8
  %19 = getelementptr inbounds %class.RAROptions, ptr %18, i32 0, i32 100
  %20 = load ptr, ptr %19, align 8
  %21 = icmp ne ptr %20, null
  br i1 %21, label %22, label %35

22:                                               ; preds = %17
  %23 = load ptr, ptr %7, align 8
  %24 = getelementptr inbounds %class.RAROptions, ptr %23, i32 0, i32 100
  %25 = load ptr, ptr %24, align 8
  %26 = load ptr, ptr %7, align 8
  %27 = getelementptr inbounds %class.RAROptions, ptr %26, i32 0, i32 99
  %28 = load i64, ptr %27, align 8
  %29 = load ptr, ptr %5, align 8
  %30 = ptrtoint ptr %29 to i64
  %31 = load i64, ptr %6, align 8
  %32 = call noundef i32 %25(i32 noundef 1, i64 noundef %28, i64 noundef %30, i64 noundef %31)
  %33 = icmp eq i32 %32, -1
  br i1 %33, label %34, label %35

34:                                               ; preds = %22
  call void @_ZN12ErrorHandler4ExitE8RAR_EXIT(ptr noundef nonnull align 4 dereferenceable(14) @ErrHandler, i32 noundef 255)
  br label %35

35:                                               ; preds = %34, %22, %17
  %36 = load ptr, ptr %7, align 8
  %37 = getelementptr inbounds %class.RAROptions, ptr %36, i32 0, i32 102
  %38 = load ptr, ptr %37, align 8
  %39 = icmp ne ptr %38, null
  br i1 %39, label %40, label %52

40:                                               ; preds = %35
  %41 = load ptr, ptr %7, align 8
  %42 = getelementptr inbounds %class.RAROptions, ptr %41, i32 0, i32 102
  %43 = load ptr, ptr %42, align 8
  %44 = load ptr, ptr %5, align 8
  %45 = load i64, ptr %6, align 8
  %46 = trunc i64 %45 to i32
  %47 = call noundef i32 %43(ptr noundef %44, i32 noundef %46)
  store i32 %47, ptr %8, align 4
  %48 = load i32, ptr %8, align 4
  %49 = icmp eq i32 %48, 0
  br i1 %49, label %50, label %51

50:                                               ; preds = %40
  call void @_ZN12ErrorHandler4ExitE8RAR_EXIT(ptr noundef nonnull align 4 dereferenceable(14) @ErrHandler, i32 noundef 255)
  br label %51

51:                                               ; preds = %50, %40
  br label %52

52:                                               ; preds = %51, %35
  br label %53

53:                                               ; preds = %52, %3
  %54 = load ptr, ptr %5, align 8
  %55 = getelementptr inbounds %class.ComprDataIO, ptr %9, i32 0, i32 9
  store ptr %54, ptr %55, align 8
  %56 = load i64, ptr %6, align 8
  %57 = getelementptr inbounds %class.ComprDataIO, ptr %9, i32 0, i32 8
  store i64 %56, ptr %57, align 8
  %58 = getelementptr inbounds %class.ComprDataIO, ptr %9, i32 0, i32 4
  %59 = load i8, ptr %58, align 8
  %60 = trunc i8 %59 to i1
  br i1 %60, label %61, label %80

61:                                               ; preds = %53
  %62 = load i64, ptr %6, align 8
  %63 = getelementptr inbounds %class.ComprDataIO, ptr %9, i32 0, i32 6
  %64 = load i64, ptr %63, align 8
  %65 = icmp ule i64 %62, %64
  br i1 %65, label %66, label %79

66:                                               ; preds = %61
  %67 = getelementptr inbounds %class.ComprDataIO, ptr %9, i32 0, i32 7
  %68 = load ptr, ptr %67, align 8
  %69 = load ptr, ptr %5, align 8
  %70 = load i64, ptr %6, align 8
  call void @llvm.memcpy.p0.p0.i64(ptr align 1 %68, ptr align 1 %69, i64 %70, i1 false)
  %71 = load i64, ptr %6, align 8
  %72 = getelementptr inbounds %class.ComprDataIO, ptr %9, i32 0, i32 7
  %73 = load ptr, ptr %72, align 8
  %74 = getelementptr inbounds i8, ptr %73, i64 %71
  store ptr %74, ptr %72, align 8
  %75 = load i64, ptr %6, align 8
  %76 = getelementptr inbounds %class.ComprDataIO, ptr %9, i32 0, i32 6
  %77 = load i64, ptr %76, align 8
  %78 = sub i64 %77, %75
  store i64 %78, ptr %76, align 8
  br label %79

79:                                               ; preds = %66, %61
  br label %91

80:                                               ; preds = %53
  %81 = getelementptr inbounds %class.ComprDataIO, ptr %9, i32 0, i32 13
  %82 = load i8, ptr %81, align 1
  %83 = trunc i8 %82 to i1
  br i1 %83, label %90, label %84

84:                                               ; preds = %80
  %85 = getelementptr inbounds %class.ComprDataIO, ptr %9, i32 0, i32 18
  %86 = load ptr, ptr %85, align 8
  %87 = load ptr, ptr %5, align 8
  %88 = load i64, ptr %6, align 8
  %89 = call noundef zeroext i1 @_ZN4File5WriteEPKvm(ptr noundef nonnull align 8 dereferenceable(8256) %86, ptr noundef %87, i64 noundef %88)
  br label %90

90:                                               ; preds = %84, %80
  br label %91

91:                                               ; preds = %90, %79
  %92 = load i64, ptr %6, align 8
  %93 = getelementptr inbounds %class.ComprDataIO, ptr %9, i32 0, i32 33
  %94 = load i64, ptr %93, align 8
  %95 = add i64 %94, %92
  store i64 %95, ptr %93, align 8
  %96 = getelementptr inbounds %class.ComprDataIO, ptr %9, i32 0, i32 14
  %97 = load i8, ptr %96, align 2
  %98 = trunc i8 %97 to i1
  br i1 %98, label %103, label %99

99:                                               ; preds = %91
  %100 = getelementptr inbounds %class.ComprDataIO, ptr %9, i32 0, i32 39
  %101 = load ptr, ptr %5, align 8
  %102 = load i64, ptr %6, align 8
  call void @_ZN8DataHash6UpdateEPKvm(ptr noundef nonnull align 8 dereferenceable(16) %100, ptr noundef %101, i64 noundef %102)
  br label %103

103:                                              ; preds = %99, %91
  call void @_ZN11ComprDataIO12ShowUnpWriteEv(ptr noundef nonnull align 8 dereferenceable(266) %9)
  call void @_Z4Waitv()
  ret void
}