; Function Attrs: mustprogress uwtable
define void @_ZN11ComprDataIO8UnpWriteEPhm(ptr noundef nonnull align 8 dereferenceable(266) initializes((48, 64)) %0, ptr noundef %1, i64 noundef %2) local_unnamed_addr #0 align 2 {
  %4 = getelementptr inbounds nuw i8, ptr %0, i64 88
  %5 = load ptr, ptr %4, align 8
  %6 = getelementptr inbounds nuw i8, ptr %5, i64 11056
  %7 = load ptr, ptr %6, align 8
  %8 = getelementptr inbounds nuw i8, ptr %7, i64 83420
  %9 = load i32, ptr %8, align 4
  %.not = icmp eq i32 %9, 0
  br i1 %.not, label %28, label %10

10:                                               ; preds = %3
  %11 = getelementptr inbounds nuw i8, ptr %7, i64 83440
  %12 = load ptr, ptr %11, align 8
  %.not25 = icmp eq ptr %12, null
  br i1 %.not25, label %20, label %13

13:                                               ; preds = %10
  %14 = getelementptr inbounds nuw i8, ptr %7, i64 83432
  %15 = load i64, ptr %14, align 8
  %16 = ptrtoint ptr %1 to i64
  %17 = tail call noundef i32 %12(i32 noundef 1, i64 noundef %15, i64 noundef %16, i64 noundef %2)
  %18 = icmp eq i32 %17, -1
  br i1 %18, label %19, label %20

19:                                               ; preds = %13
  tail call void @_ZN12ErrorHandler4ExitE8RAR_EXIT(ptr noundef nonnull align 4 dereferenceable(14) @ErrHandler, i32 noundef 255)
  br label %20

20:                                               ; preds = %19, %13, %10
  %21 = getelementptr inbounds nuw i8, ptr %7, i64 83456
  %22 = load ptr, ptr %21, align 8
  %.not26 = icmp eq ptr %22, null
  br i1 %.not26, label %28, label %23

23:                                               ; preds = %20
  %24 = trunc i64 %2 to i32
  %25 = tail call noundef i32 %22(ptr noundef %1, i32 noundef %24)
  %26 = icmp eq i32 %25, 0
  br i1 %26, label %27, label %28

27:                                               ; preds = %23
  tail call void @_ZN12ErrorHandler4ExitE8RAR_EXIT(ptr noundef nonnull align 4 dereferenceable(14) @ErrHandler, i32 noundef 255)
  br label %28

28:                                               ; preds = %20, %27, %23, %3
  %29 = getelementptr inbounds nuw i8, ptr %0, i64 56
  store ptr %1, ptr %29, align 8
  %30 = getelementptr inbounds nuw i8, ptr %0, i64 48
  store i64 %2, ptr %30, align 8
  %31 = getelementptr inbounds nuw i8, ptr %0, i64 24
  %32 = load i8, ptr %31, align 8
  %33 = trunc i8 %32 to i1
  br i1 %33, label %34, label %44

34:                                               ; preds = %28
  %35 = getelementptr inbounds nuw i8, ptr %0, i64 32
  %36 = load i64, ptr %35, align 8
  %.not27 = icmp ugt i64 %2, %36
  br i1 %.not27, label %52, label %37

37:                                               ; preds = %34
  %38 = getelementptr inbounds nuw i8, ptr %0, i64 40
  %39 = load ptr, ptr %38, align 8
  tail call void @llvm.memcpy.p0.p0.i64(ptr align 1 %39, ptr align 1 %1, i64 %2, i1 false)
  %40 = load ptr, ptr %38, align 8
  %41 = getelementptr inbounds i8, ptr %40, i64 %2
  store ptr %41, ptr %38, align 8
  %42 = load i64, ptr %35, align 8
  %43 = sub i64 %42, %2
  store i64 %43, ptr %35, align 8
  br label %52

44:                                               ; preds = %28
  %45 = getelementptr inbounds nuw i8, ptr %0, i64 81
  %46 = load i8, ptr %45, align 1
  %47 = trunc i8 %46 to i1
  br i1 %47, label %52, label %48

48:                                               ; preds = %44
  %49 = getelementptr inbounds nuw i8, ptr %0, i64 96
  %50 = load ptr, ptr %49, align 8
  %51 = tail call noundef zeroext i1 @_ZN4File5WriteEPKvm(ptr noundef nonnull align 8 dereferenceable(8256) %50, ptr noundef %1, i64 noundef %2)
  br label %52

52:                                               ; preds = %44, %48, %34, %37
  %53 = getelementptr inbounds nuw i8, ptr %0, i64 184
  %54 = load i64, ptr %53, align 8
  %55 = add i64 %54, %2
  store i64 %55, ptr %53, align 8
  %56 = getelementptr inbounds nuw i8, ptr %0, i64 82
  %57 = load i8, ptr %56, align 2
  %58 = trunc i8 %57 to i1
  br i1 %58, label %61, label %59

59:                                               ; preds = %52
  %60 = getelementptr inbounds nuw i8, ptr %0, i64 248
  tail call void @_ZN8DataHash6UpdateEPKvm(ptr noundef nonnull align 8 dereferenceable(16) %60, ptr noundef %1, i64 noundef %2)
  br label %61

61:                                               ; preds = %59, %52
  tail call void @_Z4Waitv()
  ret void
}